; Function Attrs: nounwind uwtable
define internal noalias ptr @key2any_newctx(ptr noundef %0) #0 {
  %2 = tail call noalias ptr @CRYPTO_zalloc(i64 noundef 72, ptr noundef nonnull @.str, i32 noundef 1030) #5
  %.not = icmp eq ptr %2, null
  br i1 %.not, label %5, label %3

3:                                                ; preds = %1
  store ptr %0, ptr %2, align 8, !tbaa !3
  %4 = getelementptr inbounds nuw i8, ptr %2, i64 8
  store i32 1, ptr %4, align 8, !tbaa !14
  br label %5

5:                                                ; preds = %3, %1
  ret ptr %2
}